target datalayout = "e-m:e-p270:32:32-p271:32:32-p272:64:64-i64:64-i128:128-f80:128-n8:16:32:64-S128"
target triple = "x86_64-pc-linux-gnu"

%struct.GISTSTATE = type { ptr, ptr, ptr, ptr, ptr, [32 x %struct.FmgrInfo], [32 x %struct.FmgrInfo], [32 x %struct.FmgrInfo], [32 x %struct.FmgrInfo], [32 x %struct.FmgrInfo], [32 x %struct.FmgrInfo], [32 x %struct.FmgrInfo], [32 x %struct.FmgrInfo], [32 x %struct.FmgrInfo], [32 x i32] }
%struct.FmgrInfo = type { ptr, i32, i16, i8, i8, i8, ptr, ptr, ptr }
%struct.TupleDescData = type { i32, i32, i32, i32, ptr, [0 x %struct.CompactAttribute] }
%struct.CompactAttribute = type { i32, i16, i8, i8, i8, i8, i8, i8, i8 }
%struct.GISTENTRY = type { i64, ptr, ptr, i16, i8 }
%struct.RelationData = type { %struct.RelFileLocator, ptr, i32, i32, i8, i8, i8, i8, i8, i32, i32, i32, i32, ptr, ptr, i32, %struct.LockInfoData, ptr, ptr, ptr, ptr, ptr, i8, ptr, ptr, ptr, ptr, ptr, ptr, i32, ptr, i8, ptr, ptr, i32, i8, i32, ptr, i8, ptr, ptr, ptr, ptr, ptr, ptr, ptr, i32, ptr, ptr, ptr, ptr, ptr, ptr, ptr, ptr, ptr, ptr, ptr, ptr, ptr, ptr, ptr, ptr, ptr, ptr, ptr, i32, i8, ptr }
%struct.RelFileLocator = type { i32, i32, i32 }
%struct.LockInfoData = type { %struct.LockRelId }
%struct.LockRelId = type { i32, i32 }
%struct.FormData_pg_index = type { i32, i32, i16, i16, i8, i8, i8, i8, i8, i8, i8, i8, i8, i8, i8, %struct.int2vector }
%struct.int2vector = type { i32, i32, i32, i32, i32, i32, [0 x i16] }

; Function Attrs: inlinehint nounwind uwtable
define internal ptr @DatumGetPointer(i64 noundef %0) #2 {
  %2 = alloca i64, align 8
  store i64 %0, ptr %2, align 8
  %3 = load i64, ptr %2, align 8
  %4 = inttoptr i64 %3 to ptr
  ret ptr %4
}

; Function Attrs: inlinehint nounwind uwtable
define internal i64 @PointerGetDatum(ptr noundef %0) #2 {
  %2 = alloca ptr, align 8
  store ptr %0, ptr %2, align 8
  %3 = load ptr, ptr %2, align 8
  %4 = ptrtoint ptr %3 to i64
  ret i64 %4
}

; Function Attrs: nounwind uwtable
define dso_local void @gistCompressValues(ptr noundef %0, ptr noundef %1, ptr noundef %2, ptr noundef %3, i1 noundef zeroext %4, ptr noundef %5) #0 {
  %7 = alloca ptr, align 8
  %8 = alloca ptr, align 8
  %9 = alloca ptr, align 8
  %10 = alloca ptr, align 8
  %11 = alloca i8, align 1
  %12 = alloca ptr, align 8
  %13 = alloca i32, align 4
  %14 = alloca %struct.GISTENTRY, align 8
  %15 = alloca ptr, align 8
  store ptr %0, ptr %7, align 8
  store ptr %1, ptr %8, align 8
  store ptr %2, ptr %9, align 8
  store ptr %3, ptr %10, align 8
  %16 = zext i1 %4 to i8
  store i8 %16, ptr %11, align 1
  store ptr %5, ptr %12, align 8
  call void @llvm.lifetime.start.p0(i64 4, ptr %13) #8
  store i32 0, ptr %13, align 4
  br label %17

17:                                               ; preds = %89, %6
  %18 = load i32, ptr %13, align 4
  %19 = load ptr, ptr %8, align 8
  %20 = getelementptr inbounds nuw %struct.RelationData, ptr %19, i32 0, i32 48
  %21 = load ptr, ptr %20, align 8
  %22 = getelementptr inbounds nuw %struct.FormData_pg_index, ptr %21, i32 0, i32 3
  %23 = load i16, ptr %22, align 2
  %24 = sext i16 %23 to i32
  %25 = icmp slt i32 %18, %24
  br i1 %25, label %26, label %92

26:                                               ; preds = %17
  %27 = load ptr, ptr %10, align 8
  %28 = load i32, ptr %13, align 4
  %29 = sext i32 %28 to i64
  %30 = getelementptr inbounds i8, ptr %27, i64 %29
  %31 = load i8, ptr %30, align 1, !range !11, !noundef !12
  %32 = trunc i8 %31 to i1
  br i1 %32, label %33, label %38

33:                                               ; preds = %26
  %34 = load ptr, ptr %12, align 8
  %35 = load i32, ptr %13, align 4
  %36 = sext i32 %35 to i64
  %37 = getelementptr inbounds i64, ptr %34, i64 %36
  store i64 0, ptr %37, align 8
  br label %88

38:                                               ; preds = %26
  call void @llvm.lifetime.start.p0(i64 32, ptr %14) #8
  call void @llvm.lifetime.start.p0(i64 8, ptr %15) #8
  br label %39

39:                                               ; preds = %38
  %40 = load ptr, ptr %9, align 8
  %41 = load i32, ptr %13, align 4
  %42 = sext i32 %41 to i64
  %43 = getelementptr inbounds i64, ptr %40, i64 %42
  %44 = load i64, ptr %43, align 8
  %45 = getelementptr inbounds nuw %struct.GISTENTRY, ptr %14, i32 0, i32 0
  store i64 %44, ptr %45, align 8
  %46 = load ptr, ptr %8, align 8
  %47 = getelementptr inbounds nuw %struct.GISTENTRY, ptr %14, i32 0, i32 1
  store ptr %46, ptr %47, align 8
  %48 = getelementptr inbounds nuw %struct.GISTENTRY, ptr %14, i32 0, i32 2
  store ptr null, ptr %48, align 8
  %49 = getelementptr inbounds nuw %struct.GISTENTRY, ptr %14, i32 0, i32 3
  store i16 0, ptr %49, align 8
  %50 = load i8, ptr %11, align 1, !range !11, !noundef !12
  %51 = trunc i8 %50 to i1
  %52 = getelementptr inbounds nuw %struct.GISTENTRY, ptr %14, i32 0, i32 4
  %53 = zext i1 %51 to i8
  store i8 %53, ptr %52, align 2
  br label %54

54:                                               ; preds = %39
  br label %55

55:                                               ; preds = %54
  %56 = load ptr, ptr %7, align 8
  %57 = getelementptr inbounds nuw %struct.GISTSTATE, ptr %56, i32 0, i32 7
  %58 = load i32, ptr %13, align 4
  %59 = sext i32 %58 to i64
  %60 = getelementptr inbounds [32 x %struct.FmgrInfo], ptr %57, i64 0, i64 %59
  %61 = getelementptr inbounds nuw %struct.FmgrInfo, ptr %60, i32 0, i32 1
  %62 = load i32, ptr %61, align 8
  %63 = icmp ne i32 %62, 0
  br i1 %63, label %64, label %79

64:                                               ; preds = %55
  %65 = load ptr, ptr %7, align 8
  %66 = getelementptr inbounds nuw %struct.GISTSTATE, ptr %65, i32 0, i32 7
  %67 = load i32, ptr %13, align 4
  %68 = sext i32 %67 to i64
  %69 = getelementptr inbounds [32 x %struct.FmgrInfo], ptr %66, i64 0, i64 %68
  %70 = load ptr, ptr %7, align 8
  %71 = getelementptr inbounds nuw %struct.GISTSTATE, ptr %70, i32 0, i32 14
  %72 = load i32, ptr %13, align 4
  %73 = sext i32 %72 to i64
  %74 = getelementptr inbounds [32 x i32], ptr %71, i64 0, i64 %73
  %75 = load i32, ptr %74, align 4
  %76 = call i64 @PointerGetDatum(ptr noundef %14)
  %77 = call i64 @FunctionCall1Coll(ptr noundef %69, i32 noundef %75, i64 noundef %76)
  %78 = call ptr @DatumGetPointer(i64 noundef %77)
  store ptr %78, ptr %15, align 8
  br label %80

79:                                               ; preds = %55
  store ptr %14, ptr %15, align 8
  br label %80

80:                                               ; preds = %79, %64
  %81 = load ptr, ptr %15, align 8
  %82 = getelementptr inbounds nuw %struct.GISTENTRY, ptr %81, i32 0, i32 0
  %83 = load i64, ptr %82, align 8
  %84 = load ptr, ptr %12, align 8
  %85 = load i32, ptr %13, align 4
  %86 = sext i32 %85 to i64
  %87 = getelementptr inbounds i64, ptr %84, i64 %86
  store i64 %83, ptr %87, align 8
  call void @llvm.lifetime.end.p0(i64 8, ptr %15) #8
  call void @llvm.lifetime.end.p0(i64 32, ptr %14) #8
  br label %88

88:                                               ; preds = %80, %33
  br label %89

89:                                               ; preds = %88
  %90 = load i32, ptr %13, align 4
  %91 = add i32 %90, 1
  store i32 %91, ptr %13, align 4
  br label %17, !llvm.loop !19

92:                                               ; preds = %17
  %93 = load i8, ptr %11, align 1, !range !11, !noundef !12
  %94 = trunc i8 %93 to i1
  br i1 %94, label %95, label %131

95:                                               ; preds = %92
  br label %96

96:                                               ; preds = %127, %95
  %97 = load i32, ptr %13, align 4
  %98 = load ptr, ptr %8, align 8
  %99 = getelementptr inbounds nuw %struct.RelationData, ptr %98, i32 0, i32 14
  %100 = load ptr, ptr %99, align 8
  %101 = getelementptr inbounds nuw %struct.TupleDescData, ptr %100, i32 0, i32 0
  %102 = load i32, ptr %101, align 8
  %103 = icmp slt i32 %97, %102
  br i1 %103, label %104, label %130

104:                                              ; preds = %96
  %105 = load ptr, ptr %10, align 8
  %106 = load i32, ptr %13, align 4
  %107 = sext i32 %106 to i64
  %108 = getelementptr inbounds i8, ptr %105, i64 %107
  %109 = load i8, ptr %108, align 1, !range !11, !noundef !12
  %110 = trunc i8 %109 to i1
  br i1 %110, label %111, label %116

111:                                              ; preds = %104
  %112 = load ptr, ptr %12, align 8
  %113 = load i32, ptr %13, align 4
  %114 = sext i32 %113 to i64
  %115 = getelementptr inbounds i64, ptr %112, i64 %114
  store i64 0, ptr %115, align 8
  br label %126

116:                                              ; preds = %104
  %117 = load ptr, ptr %9, align 8
  %118 = load i32, ptr %13, align 4
  %119 = sext i32 %118 to i64
  %120 = getelementptr inbounds i64, ptr %117, i64 %119
  %121 = load i64, ptr %120, align 8
  %122 = load ptr, ptr %12, align 8
  %123 = load i32, ptr %13, align 4
  %124 = sext i32 %123 to i64
  %125 = getelementptr inbounds i64, ptr %122, i64 %124
  store i64 %121, ptr %125, align 8
  br label %126

126:                                              ; preds = %116, %111
  br label %127

127:                                              ; preds = %126
  %128 = load i32, ptr %13, align 4
  %129 = add i32 %128, 1
  store i32 %129, ptr %13, align 4
  br label %96, !llvm.loop !20

130:                                              ; preds = %96
  br label %131

131:                                              ; preds = %130, %92
  call void @llvm.lifetime.end.p0(i64 4, ptr %13) #8
  ret void
}