; Function Attrs: nounwind uwtable
define dso_local void @gistCompressValues(ptr noundef %0, ptr noundef %1, ptr noundef readonly captures(none) %2, ptr noundef readonly captures(none) %3, i1 noundef zeroext %4, ptr noundef writeonly captures(none) %5) local_unnamed_addr #0 {
  %7 = alloca %struct.GISTENTRY, align 8
  %8 = zext i1 %4 to i8
  %9 = getelementptr inbounds nuw i8, ptr %1, i64 328
  %10 = load ptr, ptr %9, align 8
  %11 = getelementptr inbounds nuw i8, ptr %10, i64 10
  %12 = load i16, ptr %11, align 2
  %13 = icmp sgt i16 %12, 0
  br i1 %13, label %.lr.ph, label %._crit_edge

.lr.ph:                                           ; preds = %6
  %14 = getelementptr inbounds nuw i8, ptr %7, i64 8
  %15 = getelementptr inbounds nuw i8, ptr %7, i64 16
  %16 = getelementptr inbounds nuw i8, ptr %7, i64 24
  %17 = getelementptr inbounds nuw i8, ptr %7, i64 26
  %18 = getelementptr inbounds nuw i8, ptr %0, i64 3112
  %19 = getelementptr inbounds nuw i8, ptr %0, i64 13864
  %20 = ptrtoint ptr %7 to i64
  br label %21

21:                                               ; preds = %.lr.ph, %41
  %indvars.iv = phi i64 [ 0, %.lr.ph ], [ %indvars.iv.next, %41 ]
  %22 = getelementptr inbounds nuw i8, ptr %3, i64 %indvars.iv
  %23 = load i8, ptr %22, align 1, !range !12, !noundef !13
  %24 = trunc nuw i8 %23 to i1
  br i1 %24, label %25, label %27

25:                                               ; preds = %21
  %26 = getelementptr inbounds nuw i64, ptr %5, i64 %indvars.iv
  store i64 0, ptr %26, align 8
  br label %41

27:                                               ; preds = %21
  call void @llvm.lifetime.start.p0(i64 32, ptr nonnull %7) #11
  %28 = getelementptr inbounds nuw i64, ptr %2, i64 %indvars.iv
  %29 = load i64, ptr %28, align 8
  store i64 %29, ptr %7, align 8
  store ptr %1, ptr %14, align 8
  store ptr null, ptr %15, align 8
  store i16 0, ptr %16, align 8
  store i8 %8, ptr %17, align 2
  %30 = getelementptr inbounds nuw [32 x %struct.FmgrInfo], ptr %18, i64 0, i64 %indvars.iv
  %31 = getelementptr inbounds nuw i8, ptr %30, i64 8
  %32 = load i32, ptr %31, align 8
  %.not = icmp eq i32 %32, 0
  br i1 %.not, label %38, label %33

33:                                               ; preds = %27
  %34 = getelementptr inbounds nuw [32 x i32], ptr %19, i64 0, i64 %indvars.iv
  %35 = load i32, ptr %34, align 4
  %36 = call i64 @FunctionCall1Coll(ptr noundef nonnull %30, i32 noundef %35, i64 noundef %20) #11
  %37 = inttoptr i64 %36 to ptr
  %.pre = load i64, ptr %37, align 8
  br label %38

38:                                               ; preds = %27, %33
  %39 = phi i64 [ %.pre, %33 ], [ %29, %27 ]
  %40 = getelementptr inbounds nuw i64, ptr %5, i64 %indvars.iv
  store i64 %39, ptr %40, align 8
  call void @llvm.lifetime.end.p0(i64 32, ptr nonnull %7) #11
  br label %41

41:                                               ; preds = %25, %38
  %indvars.iv.next = add nuw nsw i64 %indvars.iv, 1
  %42 = load ptr, ptr %9, align 8
  %43 = getelementptr inbounds nuw i8, ptr %42, i64 10
  %44 = load i16, ptr %43, align 2
  %45 = sext i16 %44 to i64
  %46 = icmp slt i64 %indvars.iv.next, %45
  br i1 %46, label %21, label %._crit_edge.loopexit, !llvm.loop !15

._crit_edge.loopexit:                             ; preds = %41
  %47 = trunc nuw nsw i64 %indvars.iv.next to i32
  br label %._crit_edge

._crit_edge:                                      ; preds = %._crit_edge.loopexit, %6
  %.031.lcssa = phi i32 [ 0, %6 ], [ %47, %._crit_edge.loopexit ]
  br i1 %4, label %.preheader, label %.loopexit

.preheader:                                       ; preds = %._crit_edge
  %48 = getelementptr inbounds nuw i8, ptr %1, i64 64
  %49 = load ptr, ptr %48, align 8
  %50 = load i32, ptr %49, align 8
  %51 = icmp slt i32 %.031.lcssa, %50
  br i1 %51, label %.lr.ph34.preheader, label %.loopexit

.lr.ph34.preheader:                               ; preds = %.preheader
  %52 = zext nneg i32 %.031.lcssa to i64
  br label %.lr.ph34

.lr.ph34:                                         ; preds = %.lr.ph34.preheader, %59
  %indvars.iv36 = phi i64 [ %52, %.lr.ph34.preheader ], [ %indvars.iv.next37, %59 ]
  %53 = getelementptr inbounds nuw i8, ptr %3, i64 %indvars.iv36
  %54 = load i8, ptr %53, align 1, !range !12, !noundef !13
  %55 = trunc nuw i8 %54 to i1
  br i1 %55, label %59, label %56

56:                                               ; preds = %.lr.ph34
  %57 = getelementptr inbounds nuw i64, ptr %2, i64 %indvars.iv36
  %58 = load i64, ptr %57, align 8
  br label %59

59:                                               ; preds = %.lr.ph34, %56
  %.sink = phi i64 [ %58, %56 ], [ 0, %.lr.ph34 ]
  %60 = getelementptr inbounds nuw i64, ptr %5, i64 %indvars.iv36
  store i64 %.sink, ptr %60, align 8
  %indvars.iv.next37 = add nuw nsw i64 %indvars.iv36, 1
  %61 = load ptr, ptr %48, align 8
  %62 = load i32, ptr %61, align 8
  %63 = sext i32 %62 to i64
  %64 = icmp slt i64 %indvars.iv.next37, %63
  br i1 %64, label %.lr.ph34, label %.loopexit, !llvm.loop !16

.loopexit:                                        ; preds = %59, %.preheader, %._crit_edge
  ret void
}